target datalayout = "e-m:e-p270:32:32-p271:32:32-p272:64:64-i64:64-i128:128-f80:128-n8:16:32:64-S128"
target triple = "x86_64-pc-linux-gnu"

%struct.AVIOInterruptCB = type { ptr, ptr }
%struct.OptionsContext = type { ptr, i64, i64, i32, ptr, %struct.SpecifierOptList, %struct.SpecifierOptList, %struct.SpecifierOptList, %struct.SpecifierOptList, %struct.SpecifierOptList, %struct.SpecifierOptList, %struct.SpecifierOptList, %struct.SpecifierOptList, i64, i32, i32, float, float, double, i32, i32, i32, i32, %struct.SpecifierOptList, %struct.SpecifierOptList, %struct.SpecifierOptList, %struct.SpecifierOptList, %struct.SpecifierOptList, %struct.SpecifierOptList, %struct.SpecifierOptList, ptr, i32, ptr, i32, i32, i64, i64, i64, float, float, float, i32, i32, i32, i32, i32, i32, ptr, %struct.SpecifierOptList, %struct.SpecifierOptList, %struct.SpecifierOptList, %struct.SpecifierOptList, %struct.SpecifierOptList, %struct.SpecifierOptList, %struct.SpecifierOptList, %struct.SpecifierOptList, %struct.SpecifierOptList, %struct.SpecifierOptList, %struct.SpecifierOptList, %struct.SpecifierOptList, %struct.SpecifierOptList, %struct.SpecifierOptList, %struct.SpecifierOptList, %struct.SpecifierOptList, %struct.SpecifierOptList, %struct.SpecifierOptList, %struct.SpecifierOptList, %struct.SpecifierOptList, %struct.SpecifierOptList, %struct.SpecifierOptList, %struct.SpecifierOptList, %struct.SpecifierOptList, %struct.SpecifierOptList, %struct.SpecifierOptList, %struct.SpecifierOptList, %struct.SpecifierOptList, %struct.SpecifierOptList, %struct.SpecifierOptList, %struct.SpecifierOptList, %struct.SpecifierOptList, %struct.SpecifierOptList, %struct.SpecifierOptList, %struct.SpecifierOptList, %struct.SpecifierOptList, %struct.SpecifierOptList, %struct.SpecifierOptList, %struct.SpecifierOptList, %struct.SpecifierOptList, %struct.SpecifierOptList, %struct.SpecifierOptList, %struct.SpecifierOptList, %struct.SpecifierOptList, %struct.SpecifierOptList, %struct.SpecifierOptList, %struct.SpecifierOptList, %struct.SpecifierOptList, %struct.SpecifierOptList }
%struct.SpecifierOptList = type { ptr, i32, ptr, i32 }
%struct.Muxer = type { %struct.OutputFile, [32 x i8], ptr, ptr, i32, ptr, i32, ptr, ptr, i64, i64, i32, ptr, ptr }
%struct.OutputFile = type { ptr, i32, ptr, ptr, i32, i64, i64, i32 }
%struct.AVFormatContext = type { ptr, ptr, ptr, ptr, ptr, i32, i32, ptr, i32, ptr, i32, ptr, ptr, i64, i64, i64, i32, i32, i32, i64, i64, ptr, i32, i32, ptr, i32, i32, i32, i32, ptr, i64, i32, i32, %struct.AVIOInterruptCB, i32, i32, i32, i32, i64, i32, i32, i32, i32, i32, i32, i32, i32, i32, i32, i32, i32, i64, i32, i32, i32, i32, i32, ptr, ptr, ptr, ptr, i32, ptr, ptr, ptr, ptr, i32, ptr, ptr, i64, ptr, ptr, ptr, i64 }
%struct.AVOutputFormat = type { ptr, ptr, ptr, ptr, i32, i32, i32, i32, ptr, ptr }
%struct.AVRational = type { i32, i32 }
%struct.InputStream = type { ptr, ptr, i32, ptr, i32, ptr, ptr, ptr, %struct.AVRational, i32, i32, ptr, i32 }
%struct.AVStream = type { ptr, i32, i32, ptr, ptr, %struct.AVRational, i64, i64, i64, i32, i32, %struct.AVRational, ptr, %struct.AVRational, %struct.AVPacket, i32, %struct.AVRational, i32 }
%struct.AVPacket = type { ptr, i64, i64, ptr, i32, i32, i32, ptr, i32, i64, i64, ptr, ptr, %struct.AVRational }
%struct.AVChannelLayout = type { i32, i32, %union.anon, ptr }
%union.anon = type { i64 }
%struct.AVCodec = type { ptr, ptr, i32, i32, i32, i8, ptr, ptr, ptr, ptr, ptr, ptr, ptr, ptr }
%struct.AVCodecParameters = type { i32, i32, i32, ptr, i32, ptr, i32, i32, i64, i32, i32, i32, i32, i32, i32, %struct.AVRational, %struct.AVRational, i32, i32, i32, i32, i32, i32, i32, %struct.AVChannelLayout, i32, i32, i32, i32, i32, i32 }
%struct.AVCodecDescriptor = type { i32, i32, ptr, ptr, i32, ptr, ptr }

; Function Attrs: nounwind uwtable
define internal i32 @map_auto_subtitle(ptr noundef %0, ptr noundef %1) #0 {
  %3 = alloca i32, align 4
  %4 = alloca ptr, align 8
  %5 = alloca ptr, align 8
  %6 = alloca ptr, align 8
  %7 = alloca ptr, align 8
  %8 = alloca i32, align 4
  %9 = alloca ptr, align 8
  %10 = alloca ptr, align 8
  %11 = alloca ptr, align 8
  %12 = alloca ptr, align 8
  %13 = alloca i32, align 4
  %14 = alloca i32, align 4
  store ptr %0, ptr %4, align 8, !tbaa !34
  store ptr %1, ptr %5, align 8, !tbaa !13
  call void @llvm.lifetime.start.p0(i64 8, ptr %6) #12
  %15 = load ptr, ptr %4, align 8, !tbaa !34
  %16 = getelementptr inbounds nuw %struct.Muxer, ptr %15, i32 0, i32 2
  %17 = load ptr, ptr %16, align 8, !tbaa !58
  store ptr %17, ptr %6, align 8, !tbaa !57
  call void @llvm.lifetime.start.p0(i64 8, ptr %7) #12
  store ptr null, ptr %7, align 8, !tbaa !15
  %18 = load ptr, ptr %5, align 8, !tbaa !13
  %19 = getelementptr inbounds nuw %struct.OptionsContext, ptr %18, i32 0, i32 5
  %20 = call ptr @opt_match_per_type_str(ptr noundef %19, i8 noundef signext 115)
  store ptr %20, ptr %7, align 8, !tbaa !15
  %21 = load ptr, ptr %6, align 8, !tbaa !57
  %22 = getelementptr inbounds nuw %struct.AVFormatContext, ptr %21, i32 0, i32 2
  %23 = load ptr, ptr %22, align 8, !tbaa !59
  %24 = getelementptr inbounds nuw %struct.AVOutputFormat, ptr %23, i32 0, i32 6
  %25 = load i32, ptr %24, align 8, !tbaa !273
  %26 = call ptr @avcodec_find_encoder(i32 noundef %25)
  %27 = icmp ne ptr %26, null
  br i1 %27, label %32, label %28

28:                                               ; preds = %2
  %29 = load ptr, ptr %7, align 8, !tbaa !15
  %30 = icmp ne ptr %29, null
  br i1 %30, label %32, label %31

31:                                               ; preds = %28
  store i32 0, ptr %3, align 4
  store i32 1, ptr %8, align 4
  br label %131

32:                                               ; preds = %28, %2
  call void @llvm.lifetime.start.p0(i64 8, ptr %9) #12
  %33 = call ptr @ist_iter(ptr noundef null)
  store ptr %33, ptr %9, align 8, !tbaa !255
  br label %34

34:                                               ; preds = %125, %32
  %35 = load ptr, ptr %9, align 8, !tbaa !255
  %36 = icmp ne ptr %35, null
  br i1 %36, label %38, label %37

37:                                               ; preds = %34
  store i32 2, ptr %8, align 4
  br label %128

38:                                               ; preds = %34
  %39 = load ptr, ptr %9, align 8, !tbaa !255
  %40 = getelementptr inbounds nuw %struct.InputStream, ptr %39, i32 0, i32 3
  %41 = load ptr, ptr %40, align 8, !tbaa !191
  %42 = getelementptr inbounds nuw %struct.AVStream, ptr %41, i32 0, i32 3
  %43 = load ptr, ptr %42, align 8, !tbaa !260
  %44 = getelementptr inbounds nuw %struct.AVCodecParameters, ptr %43, i32 0, i32 0
  %45 = load i32, ptr %44, align 8, !tbaa !261
  %46 = icmp eq i32 %45, 3
  br i1 %46, label %47, label %124

47:                                               ; preds = %38
  call void @llvm.lifetime.start.p0(i64 8, ptr %10) #12
  %48 = load ptr, ptr %9, align 8, !tbaa !255
  %49 = getelementptr inbounds nuw %struct.InputStream, ptr %48, i32 0, i32 3
  %50 = load ptr, ptr %49, align 8, !tbaa !191
  %51 = getelementptr inbounds nuw %struct.AVStream, ptr %50, i32 0, i32 3
  %52 = load ptr, ptr %51, align 8, !tbaa !260
  %53 = getelementptr inbounds nuw %struct.AVCodecParameters, ptr %52, i32 0, i32 1
  %54 = load i32, ptr %53, align 4, !tbaa !271
  %55 = call ptr @avcodec_descriptor_get(i32 noundef %54)
  store ptr %55, ptr %10, align 8, !tbaa !274
  call void @llvm.lifetime.start.p0(i64 8, ptr %11) #12
  store ptr null, ptr %11, align 8, !tbaa !274
  call void @llvm.lifetime.start.p0(i64 8, ptr %12) #12
  %56 = load ptr, ptr %6, align 8, !tbaa !57
  %57 = getelementptr inbounds nuw %struct.AVFormatContext, ptr %56, i32 0, i32 2
  %58 = load ptr, ptr %57, align 8, !tbaa !59
  %59 = getelementptr inbounds nuw %struct.AVOutputFormat, ptr %58, i32 0, i32 6
  %60 = load i32, ptr %59, align 8, !tbaa !273
  %61 = call ptr @avcodec_find_encoder(i32 noundef %60)
  store ptr %61, ptr %12, align 8, !tbaa !275
  call void @llvm.lifetime.start.p0(i64 4, ptr %13) #12
  store i32 0, ptr %13, align 4, !tbaa !4
  call void @llvm.lifetime.start.p0(i64 4, ptr %14) #12
  store i32 0, ptr %14, align 4, !tbaa !4
  %62 = load ptr, ptr %9, align 8, !tbaa !255
  %63 = getelementptr inbounds nuw %struct.InputStream, ptr %62, i32 0, i32 4
  %64 = load i32, ptr %63, align 8, !tbaa !259
  %65 = icmp eq i32 %64, 48
  br i1 %65, label %66, label %67

66:                                               ; preds = %47
  store i32 4, ptr %8, align 4
  br label %121

67:                                               ; preds = %47
  %68 = load ptr, ptr %12, align 8, !tbaa !275
  %69 = icmp ne ptr %68, null
  br i1 %69, label %70, label %75

70:                                               ; preds = %67
  %71 = load ptr, ptr %12, align 8, !tbaa !275
  %72 = getelementptr inbounds nuw %struct.AVCodec, ptr %71, i32 0, i32 3
  %73 = load i32, ptr %72, align 4, !tbaa !276
  %74 = call ptr @avcodec_descriptor_get(i32 noundef %73)
  store ptr %74, ptr %11, align 8, !tbaa !274
  br label %75

75:                                               ; preds = %70, %67
  %76 = load ptr, ptr %10, align 8, !tbaa !274
  %77 = icmp ne ptr %76, null
  br i1 %77, label %78, label %83

78:                                               ; preds = %75
  %79 = load ptr, ptr %10, align 8, !tbaa !274
  %80 = getelementptr inbounds nuw %struct.AVCodecDescriptor, ptr %79, i32 0, i32 4
  %81 = load i32, ptr %80, align 8, !tbaa !277
  %82 = and i32 %81, 196608
  store i32 %82, ptr %13, align 4, !tbaa !4
  br label %83

83:                                               ; preds = %78, %75
  %84 = load ptr, ptr %11, align 8, !tbaa !274
  %85 = icmp ne ptr %84, null
  br i1 %85, label %86, label %91

86:                                               ; preds = %83
  %87 = load ptr, ptr %11, align 8, !tbaa !274
  %88 = getelementptr inbounds nuw %struct.AVCodecDescriptor, ptr %87, i32 0, i32 4
  %89 = load i32, ptr %88, align 8, !tbaa !277
  %90 = and i32 %89, 196608
  store i32 %90, ptr %14, align 4, !tbaa !4
  br label %91

91:                                               ; preds = %86, %83
  %92 = load ptr, ptr %7, align 8, !tbaa !15
  %93 = icmp ne ptr %92, null
  br i1 %93, label %115, label %94

94:                                               ; preds = %91
  %95 = load i32, ptr %13, align 4, !tbaa !4
  %96 = load i32, ptr %14, align 4, !tbaa !4
  %97 = and i32 %95, %96
  %98 = icmp ne i32 %97, 0
  br i1 %98, label %115, label %99

99:                                               ; preds = %94
  %100 = load ptr, ptr %10, align 8, !tbaa !274
  %101 = icmp ne ptr %100, null
  br i1 %101, label %102, label %120

102:                                              ; preds = %99
  %103 = load ptr, ptr %11, align 8, !tbaa !274
  %104 = icmp ne ptr %103, null
  br i1 %104, label %105, label %120

105:                                              ; preds = %102
  %106 = load ptr, ptr %10, align 8, !tbaa !274
  %107 = getelementptr inbounds nuw %struct.AVCodecDescriptor, ptr %106, i32 0, i32 4
  %108 = load i32, ptr %107, align 8, !tbaa !277
  %109 = icmp ne i32 %108, 0
  br i1 %109, label %110, label %115

110:                                              ; preds = %105
  %111 = load ptr, ptr %11, align 8, !tbaa !274
  %112 = getelementptr inbounds nuw %struct.AVCodecDescriptor, ptr %111, i32 0, i32 4
  %113 = load i32, ptr %112, align 8, !tbaa !277
  %114 = icmp ne i32 %113, 0
  br i1 %114, label %120, label %115

115:                                              ; preds = %110, %105, %94, %91
  %116 = load ptr, ptr %4, align 8, !tbaa !34
  %117 = load ptr, ptr %5, align 8, !tbaa !13
  %118 = load ptr, ptr %9, align 8, !tbaa !255
  %119 = call i32 @ost_add(ptr noundef %116, ptr noundef %117, i32 noundef 3, ptr noundef %118, ptr noundef null, ptr noundef null, ptr noundef null)
  store i32 %119, ptr %3, align 4
  store i32 1, ptr %8, align 4
  br label %121

120:                                              ; preds = %110, %102, %99
  store i32 0, ptr %8, align 4
  br label %121

121:                                              ; preds = %120, %115, %66
  call void @llvm.lifetime.end.p0(i64 4, ptr %14) #12
  call void @llvm.lifetime.end.p0(i64 4, ptr %13) #12
  call void @llvm.lifetime.end.p0(i64 8, ptr %12) #12
  call void @llvm.lifetime.end.p0(i64 8, ptr %11) #12
  call void @llvm.lifetime.end.p0(i64 8, ptr %10) #12
  %122 = load i32, ptr %8, align 4
  switch i32 %122, label %128 [
    i32 0, label %123
    i32 4, label %125
  ]

123:                                              ; preds = %121
  br label %124

124:                                              ; preds = %123, %38
  br label %125

125:                                              ; preds = %124, %121
  %126 = load ptr, ptr %9, align 8, !tbaa !255
  %127 = call ptr @ist_iter(ptr noundef %126)
  store ptr %127, ptr %9, align 8, !tbaa !255
  br label %34, !llvm.loop !279

128:                                              ; preds = %121, %37
  call void @llvm.lifetime.end.p0(i64 8, ptr %9) #12
  %129 = load i32, ptr %8, align 4
  switch i32 %129, label %131 [
    i32 2, label %130
  ]

130:                                              ; preds = %128
  store i32 0, ptr %3, align 4
  store i32 1, ptr %8, align 4
  br label %131

131:                                              ; preds = %130, %128, %31
  call void @llvm.lifetime.end.p0(i64 8, ptr %7) #12
  call void @llvm.lifetime.end.p0(i64 8, ptr %6) #12
  %132 = load i32, ptr %3, align 4
  ret i32 %132
}