; Function Attrs: nounwind uwtable
define internal i32 @map_auto_subtitle(ptr noundef %0, ptr noundef %1) #0 {
  %3 = getelementptr inbounds nuw i8, ptr %0, i64 96
  %4 = load ptr, ptr %3, align 8, !tbaa !51
  %5 = getelementptr inbounds nuw i8, ptr %1, i64 40
  %6 = tail call ptr @opt_match_per_type_str(ptr noundef nonnull %5, i8 noundef signext 115) #16
  %7 = getelementptr inbounds nuw i8, ptr %4, i64 16
  %8 = load ptr, ptr %7, align 8, !tbaa !52
  %9 = getelementptr inbounds nuw i8, ptr %8, i64 40
  %10 = load i32, ptr %9, align 8, !tbaa !356
  %11 = tail call ptr @avcodec_find_encoder(i32 noundef %10) #16
  %12 = icmp ne ptr %11, null
  %.fr53 = freeze ptr %6
  %13 = icmp ne ptr %.fr53, null
  %or.cond = or i1 %12, %13
  br i1 %or.cond, label %14, label %.loopexit

14:                                               ; preds = %2
  %15 = tail call ptr @ist_iter(ptr noundef null) #16
  %.not49 = icmp eq ptr %15, null
  br i1 %.not49, label %.loopexit, label %.lr.ph

.lr.ph:                                           ; preds = %14
  br i1 %13, label %.lr.ph.split.us, label %.lr.ph.split

.lr.ph.split.us:                                  ; preds = %.lr.ph, %.thread.us
  %.03450.us = phi ptr [ %38, %.thread.us ], [ %15, %.lr.ph ]
  %16 = getelementptr inbounds nuw i8, ptr %.03450.us, i64 24
  %17 = load ptr, ptr %16, align 8, !tbaa !127
  %18 = getelementptr inbounds nuw i8, ptr %17, i64 16
  %19 = load ptr, ptr %18, align 8, !tbaa !128
  %20 = load i32, ptr %19, align 8, !tbaa !133
  %21 = icmp eq i32 %20, 3
  br i1 %21, label %22, label %.thread.us

22:                                               ; preds = %.lr.ph.split.us
  %23 = getelementptr inbounds nuw i8, ptr %19, i64 4
  %24 = load i32, ptr %23, align 4, !tbaa !354
  %25 = tail call ptr @avcodec_descriptor_get(i32 noundef %24) #16
  %26 = load ptr, ptr %7, align 8, !tbaa !52
  %27 = getelementptr inbounds nuw i8, ptr %26, i64 40
  %28 = load i32, ptr %27, align 8, !tbaa !356
  %29 = tail call ptr @avcodec_find_encoder(i32 noundef %28) #16
  %30 = getelementptr inbounds nuw i8, ptr %.03450.us, i64 32
  %31 = load i32, ptr %30, align 8, !tbaa !121
  %32 = icmp eq i32 %31, 48
  br i1 %32, label %.thread.us, label %33

33:                                               ; preds = %22
  %.not40.us = icmp eq ptr %29, null
  br i1 %.not40.us, label %.split, label %34

34:                                               ; preds = %33
  %35 = getelementptr inbounds nuw i8, ptr %29, i64 20
  %36 = load i32, ptr %35, align 4, !tbaa !357
  %37 = tail call ptr @avcodec_descriptor_get(i32 noundef %36) #16
  br label %.split

.thread.us:                                       ; preds = %22, %.lr.ph.split.us
  %38 = tail call ptr @ist_iter(ptr noundef nonnull %.03450.us) #16
  %.not.us = icmp eq ptr %38, null
  br i1 %.not.us, label %.loopexit, label %.lr.ph.split.us, !llvm.loop !358

.lr.ph.split:                                     ; preds = %.lr.ph, %.thread
  %.03450 = phi ptr [ %82, %.thread ], [ %15, %.lr.ph ]
  %39 = getelementptr inbounds nuw i8, ptr %.03450, i64 24
  %40 = load ptr, ptr %39, align 8, !tbaa !127
  %41 = getelementptr inbounds nuw i8, ptr %40, i64 16
  %42 = load ptr, ptr %41, align 8, !tbaa !128
  %43 = load i32, ptr %42, align 8, !tbaa !133
  %44 = icmp eq i32 %43, 3
  br i1 %44, label %45, label %.thread

45:                                               ; preds = %.lr.ph.split
  %46 = getelementptr inbounds nuw i8, ptr %42, i64 4
  %47 = load i32, ptr %46, align 4, !tbaa !354
  %48 = tail call ptr @avcodec_descriptor_get(i32 noundef %47) #16
  %49 = load ptr, ptr %7, align 8, !tbaa !52
  %50 = getelementptr inbounds nuw i8, ptr %49, i64 40
  %51 = load i32, ptr %50, align 8, !tbaa !356
  %52 = tail call ptr @avcodec_find_encoder(i32 noundef %51) #16
  %53 = getelementptr inbounds nuw i8, ptr %.03450, i64 32
  %54 = load i32, ptr %53, align 8, !tbaa !121
  %55 = icmp eq i32 %54, 48
  br i1 %55, label %.thread, label %56

56:                                               ; preds = %45
  %.not40 = icmp eq ptr %52, null
  br i1 %.not40, label %61, label %57

57:                                               ; preds = %56
  %58 = getelementptr inbounds nuw i8, ptr %52, i64 20
  %59 = load i32, ptr %58, align 4, !tbaa !357
  %60 = tail call ptr @avcodec_descriptor_get(i32 noundef %59) #16
  br label %61

61:                                               ; preds = %57, %56
  %.033 = phi ptr [ %60, %57 ], [ null, %56 ]
  %62 = icmp ne ptr %48, null
  br i1 %62, label %63, label %67

63:                                               ; preds = %61
  %64 = getelementptr inbounds nuw i8, ptr %48, i64 24
  %65 = load i32, ptr %64, align 8, !tbaa !359
  %66 = and i32 %65, 196608
  br label %67

67:                                               ; preds = %63, %61
  %.031 = phi i32 [ %66, %63 ], [ 0, %61 ]
  %68 = icmp ne ptr %.033, null
  br i1 %68, label %69, label %72

69:                                               ; preds = %67
  %70 = getelementptr inbounds nuw i8, ptr %.033, i64 24
  %71 = load i32, ptr %70, align 8, !tbaa !359
  br label %72

72:                                               ; preds = %69, %67
  %.0 = phi i32 [ %71, %69 ], [ 0, %67 ]
  %73 = and i32 %.0, %.031
  %.not41.not = icmp eq i32 %73, 0
  br i1 %.not41.not, label %74, label %.split

74:                                               ; preds = %72
  %or.cond3 = and i1 %62, %68
  br i1 %or.cond3, label %75, label %.thread

75:                                               ; preds = %74
  %76 = getelementptr inbounds nuw i8, ptr %48, i64 24
  %77 = load i32, ptr %76, align 8, !tbaa !359
  %.not42 = icmp eq i32 %77, 0
  br i1 %.not42, label %.split, label %78

78:                                               ; preds = %75
  %79 = getelementptr inbounds nuw i8, ptr %.033, i64 24
  %80 = load i32, ptr %79, align 8, !tbaa !359
  %.not43 = icmp eq i32 %80, 0
  br i1 %.not43, label %.split, label %.thread

.split:                                           ; preds = %78, %75, %72, %33, %34
  %.us-phi = phi ptr [ %.03450.us, %34 ], [ %.03450.us, %33 ], [ %.03450, %72 ], [ %.03450, %75 ], [ %.03450, %78 ]
  %81 = tail call fastcc i32 @ost_add(ptr noundef %0, ptr noundef %1, i32 noundef 3, ptr noundef nonnull %.us-phi, ptr noundef null, ptr noundef null, ptr noundef null)
  br label %.loopexit

.thread:                                          ; preds = %74, %78, %45, %.lr.ph.split
  %82 = tail call ptr @ist_iter(ptr noundef nonnull %.03450) #16
  %.not = icmp eq ptr %82, null
  br i1 %.not, label %.loopexit, label %.lr.ph.split, !llvm.loop !358

.loopexit:                                        ; preds = %.thread, %.thread.us, %14, %.split, %2
  %.032 = phi i32 [ 0, %2 ], [ %81, %.split ], [ 0, %14 ], [ 0, %.thread.us ], [ 0, %.thread ]
  ret i32 %.032
}